; Function Attrs: mustprogress uwtable
define dso_local void @_ZN4Luau7CodeGen17translateInstJumpERNS0_9IrBuilderEPKji(ptr noundef nonnull align 8 dereferenceable(752) %0, ptr noundef readonly captures(none) %1, i32 noundef %2) local_unnamed_addr #0 {
  %4 = add nsw i32 %2, 1
  %5 = load i32, ptr %1, align 4, !tbaa !4
  %6 = ashr i32 %5, 16
  %7 = add nsw i32 %4, %6
  %8 = tail call i32 @_ZN4Luau7CodeGen9IrBuilder11blockAtInstEj(ptr noundef nonnull align 8 dereferenceable(752) %0, i32 noundef %7)
  %9 = tail call i32 @_ZN4Luau7CodeGen9IrBuilder4instENS0_5IrCmdENS0_4IrOpE(ptr noundef nonnull align 8 dereferenceable(752) %0, i8 noundef zeroext 46, i32 %8)
  ret void
}